target datalayout = "e-m:e-p270:32:32-p271:32:32-p272:64:64-i64:64-i128:128-f80:128-n8:16:32:64-S128"
target triple = "x86_64-pc-linux-gnu"

%"struct.faiss::IndexFlatCodes" = type { %"struct.faiss::Index.base", i64, %"class.std::vector" }
%"struct.faiss::Index.base" = type <{ ptr, i32, [4 x i8], i64, i8, i8, [2 x i8], i32, float }>
%"class.std::vector" = type { %"struct.std::_Vector_base" }
%"struct.std::_Vector_base" = type { %"struct.std::_Vector_base<unsigned char, std::allocator<unsigned char>>::_Vector_impl" }
%"struct.std::_Vector_base<unsigned char, std::allocator<unsigned char>>::_Vector_impl" = type { %"struct.std::_Vector_base<unsigned char, std::allocator<unsigned char>>::_Vector_impl_data" }
%"struct.std::_Vector_base<unsigned char, std::allocator<unsigned char>>::_Vector_impl_data" = type { ptr, ptr, ptr }
%"class.std::__cxx11::basic_string" = type { %"struct.std::__cxx11::basic_string<char>::_Alloc_hider", i64, %union.anon }
%"struct.std::__cxx11::basic_string<char>::_Alloc_hider" = type { ptr }
%union.anon = type { i64, [8 x i8] }
%"struct.faiss::Index" = type <{ ptr, i32, [4 x i8], i64, i8, i8, [2 x i8], i32, float, [4 x i8] }>

@.str.2 = private unnamed_addr constant [114 x i8] c"generated/home/dtcxzyw/WorkSpace/Projects/compilers/llvm-opt-benchmark/bench/faiss/faiss/faiss/IndexFlatCodes.cpp\00", align 1
@_ZTIN5faiss14FaissExceptionE = external constant ptr
@.str.12 = private unnamed_addr constant [54 x i8] c"Error: '%s' failed: cannot set ids in FlatCodes index\00", align 1
@.str.13 = private unnamed_addr constant [12 x i8] c"add_id == 0\00", align 1
@__PRETTY_FUNCTION__._ZN5faiss14IndexFlatCodes10merge_fromERNS_5IndexEl = private unnamed_addr constant [63 x i8] c"virtual void faiss::IndexFlatCodes::merge_from(Index &, idx_t)\00", align 1

; Function Attrs: mustprogress nounwind uwtable
define linkonce_odr noundef ptr @_ZNKSt6vectorIhSaIhEE11_M_data_ptrIhEEPT_S4_(ptr noundef nonnull align 8 dereferenceable(24) %0, ptr noundef %1) #0 comdat align 2 {
  %3 = alloca ptr, align 8
  %4 = alloca ptr, align 8
  store ptr %0, ptr %3, align 8
  store ptr %1, ptr %4, align 8
  %5 = load ptr, ptr %4, align 8
  ret ptr %5
}

; Function Attrs: mustprogress nounwind uwtable
define linkonce_odr noundef ptr @_ZNSt6vectorIhSaIhEE4dataEv(ptr noundef nonnull align 8 dereferenceable(24) %0) #0 comdat align 2 {
  %2 = alloca ptr, align 8
  store ptr %0, ptr %2, align 8
  %3 = load ptr, ptr %2, align 8
  %4 = getelementptr inbounds %"struct.std::_Vector_base", ptr %3, i32 0, i32 0
  %5 = getelementptr inbounds %"struct.std::_Vector_base<unsigned char, std::allocator<unsigned char>>::_Vector_impl_data", ptr %4, i32 0, i32 0
  %6 = load ptr, ptr %5, align 8
  %7 = call noundef ptr @_ZNKSt6vectorIhSaIhEE11_M_data_ptrIhEEPT_S4_(ptr noundef nonnull align 8 dereferenceable(24) %3, ptr noundef %6) #12
  ret ptr %7
}

; Function Attrs: mustprogress uwtable
define void @_ZN5faiss14IndexFlatCodes10merge_fromERNS_5IndexEl(ptr noundef nonnull align 8 dereferenceable(72) %0, ptr noundef nonnull align 8 dereferenceable(36) %1, i64 noundef %2) unnamed_addr #2 align 2 personality ptr @__gxx_personality_v0 {
  %4 = alloca ptr, align 8
  %5 = alloca ptr, align 8
  %6 = alloca i64, align 8
  %7 = alloca %"class.std::__cxx11::basic_string", align 8
  %8 = alloca i32, align 4
  %9 = alloca ptr, align 8
  %10 = alloca i32, align 4
  %11 = alloca ptr, align 8
  store ptr %0, ptr %4, align 8
  store ptr %1, ptr %5, align 8
  store i64 %2, ptr %6, align 8
  %12 = load ptr, ptr %4, align 8
  br label %13

13:                                               ; preds = %3
  %14 = load i64, ptr %6, align 8
  %15 = icmp eq i64 %14, 0
  br i1 %15, label %39, label %16

16:                                               ; preds = %13
  br label %17

17:                                               ; preds = %16
  call void @_ZNSt7__cxx1112basic_stringIcSt11char_traitsIcESaIcEEC1Ev(ptr noundef nonnull align 8 dereferenceable(32) %7) #12
  %18 = call i32 (ptr, i64, ptr, ...) @snprintf(ptr noundef null, i64 noundef 0, ptr noundef @.str.12, ptr noundef @.str.13) #12
  store i32 %18, ptr %8, align 4
  %19 = load i32, ptr %8, align 4
  %20 = add nsw i32 %19, 1
  %21 = sext i32 %20 to i64
  invoke void @_ZNSt7__cxx1112basic_stringIcSt11char_traitsIcESaIcEE6resizeEm(ptr noundef nonnull align 8 dereferenceable(32) %7, i64 noundef %21)
          to label %22 unwind label %29

22:                                               ; preds = %17
  %23 = invoke noundef nonnull align 1 dereferenceable(1) ptr @_ZNSt7__cxx1112basic_stringIcSt11char_traitsIcESaIcEEixEm(ptr noundef nonnull align 8 dereferenceable(32) %7, i64 noundef 0)
          to label %24 unwind label %29

24:                                               ; preds = %22
  %25 = call noundef i64 @_ZNKSt7__cxx1112basic_stringIcSt11char_traitsIcESaIcEE4sizeEv(ptr noundef nonnull align 8 dereferenceable(32) %7) #12
  %26 = call i32 (ptr, i64, ptr, ...) @snprintf(ptr noundef %23, i64 noundef %25, ptr noundef @.str.12, ptr noundef @.str.13) #12
  %27 = call ptr @__cxa_allocate_exception(i64 40) #12
  invoke void @_ZN5faiss14FaissExceptionC1ERKNSt7__cxx1112basic_stringIcSt11char_traitsIcESaIcEEEPKcSA_i(ptr noundef nonnull align 8 dereferenceable(40) %27, ptr noundef nonnull align 8 dereferenceable(32) %7, ptr noundef @__PRETTY_FUNCTION__._ZN5faiss14IndexFlatCodes10merge_fromERNS_5IndexEl, ptr noundef @.str.2, i32 noundef 91)
          to label %28 unwind label %33

28:                                               ; preds = %24
  invoke void @__cxa_throw(ptr %27, ptr @_ZTIN5faiss14FaissExceptionE, ptr @_ZN5faiss14FaissExceptionD2Ev) #14
          to label %88 unwind label %29

29:                                               ; preds = %28, %22, %17
  %30 = landingpad { ptr, i32 }
          cleanup
  %31 = extractvalue { ptr, i32 } %30, 0
  store ptr %31, ptr %9, align 8
  %32 = extractvalue { ptr, i32 } %30, 1
  store i32 %32, ptr %10, align 4
  br label %37

33:                                               ; preds = %24
  %34 = landingpad { ptr, i32 }
          cleanup
  %35 = extractvalue { ptr, i32 } %34, 0
  store ptr %35, ptr %9, align 8
  %36 = extractvalue { ptr, i32 } %34, 1
  store i32 %36, ptr %10, align 4
  call void @__cxa_free_exception(ptr %27) #12
  br label %37

37:                                               ; preds = %33, %29
  call void @_ZNSt7__cxx1112basic_stringIcSt11char_traitsIcESaIcEED1Ev(ptr noundef nonnull align 8 dereferenceable(32) %7) #12
  br label %83

38:                                               ; No predecessors!
  br label %39

39:                                               ; preds = %38, %13
  br label %40

40:                                               ; preds = %39
  %41 = load ptr, ptr %5, align 8
  %42 = load ptr, ptr %12, align 8
  %43 = getelementptr inbounds ptr, ptr %42, i64 21
  %44 = load ptr, ptr %43, align 8
  call void %44(ptr noundef nonnull align 8 dereferenceable(72) %12, ptr noundef nonnull align 8 dereferenceable(36) %41)
  %45 = load ptr, ptr %5, align 8
  store ptr %45, ptr %11, align 8
  %46 = getelementptr inbounds %"struct.faiss::IndexFlatCodes", ptr %12, i32 0, i32 2
  %47 = getelementptr inbounds %"struct.faiss::Index", ptr %12, i32 0, i32 3
  %48 = load i64, ptr %47, align 8
  %49 = load ptr, ptr %11, align 8
  %50 = getelementptr inbounds %"struct.faiss::Index", ptr %49, i32 0, i32 3
  %51 = load i64, ptr %50, align 8
  %52 = add nsw i64 %48, %51
  %53 = getelementptr inbounds %"struct.faiss::IndexFlatCodes", ptr %12, i32 0, i32 1
  %54 = load i64, ptr %53, align 8
  %55 = mul i64 %52, %54
  call void @_ZNSt6vectorIhSaIhEE6resizeEm(ptr noundef nonnull align 8 dereferenceable(24) %46, i64 noundef %55)
  %56 = getelementptr inbounds %"struct.faiss::IndexFlatCodes", ptr %12, i32 0, i32 2
  %57 = call noundef ptr @_ZNSt6vectorIhSaIhEE4dataEv(ptr noundef nonnull align 8 dereferenceable(24) %56) #12
  %58 = getelementptr inbounds %"struct.faiss::Index", ptr %12, i32 0, i32 3
  %59 = load i64, ptr %58, align 8
  %60 = getelementptr inbounds %"struct.faiss::IndexFlatCodes", ptr %12, i32 0, i32 1
  %61 = load i64, ptr %60, align 8
  %62 = mul i64 %59, %61
  %63 = getelementptr inbounds i8, ptr %57, i64 %62
  %64 = load ptr, ptr %11, align 8
  %65 = getelementptr inbounds %"struct.faiss::IndexFlatCodes", ptr %64, i32 0, i32 2
  %66 = call noundef ptr @_ZNSt6vectorIhSaIhEE4dataEv(ptr noundef nonnull align 8 dereferenceable(24) %65) #12
  %67 = load ptr, ptr %11, align 8
  %68 = getelementptr inbounds %"struct.faiss::Index", ptr %67, i32 0, i32 3
  %69 = load i64, ptr %68, align 8
  %70 = getelementptr inbounds %"struct.faiss::IndexFlatCodes", ptr %12, i32 0, i32 1
  %71 = load i64, ptr %70, align 8
  %72 = mul i64 %69, %71
  call void @llvm.memcpy.p0.p0.i64(ptr align 1 %63, ptr align 1 %66, i64 %72, i1 false)
  %73 = load ptr, ptr %11, align 8
  %74 = getelementptr inbounds %"struct.faiss::Index", ptr %73, i32 0, i32 3
  %75 = load i64, ptr %74, align 8
  %76 = getelementptr inbounds %"struct.faiss::Index", ptr %12, i32 0, i32 3
  %77 = load i64, ptr %76, align 8
  %78 = add nsw i64 %77, %75
  store i64 %78, ptr %76, align 8
  %79 = load ptr, ptr %11, align 8
  %80 = load ptr, ptr %79, align 8
  %81 = getelementptr inbounds ptr, ptr %80, i64 8
  %82 = load ptr, ptr %81, align 8
  call void %82(ptr noundef nonnull align 8 dereferenceable(72) %79)
  ret void

83:                                               ; preds = %37
  %84 = load ptr, ptr %9, align 8
  %85 = load i32, ptr %10, align 4
  %86 = insertvalue { ptr, i32 } poison, ptr %84, 0
  %87 = insertvalue { ptr, i32 } %86, i32 %85, 1
  resume { ptr, i32 } %87

88:                                               ; preds = %28
  unreachable
}