; Function Attrs: mustprogress uwtable
define void @_ZN5faiss14IndexFlatCodes10merge_fromERNS_5IndexEl(ptr noundef nonnull align 8 dereferenceable(72) %0, ptr noundef nonnull align 8 dereferenceable(36) %1, i64 noundef %2) unnamed_addr #2 align 2 personality ptr @__gxx_personality_v0 {
  %4 = alloca %"class.std::__cxx11::basic_string", align 8
  %5 = icmp eq i64 %2, 0
  br i1 %5, label %22, label %6

6:                                                ; preds = %3
  call void @_ZNSt7__cxx1112basic_stringIcSt11char_traitsIcESaIcEEC1Ev(ptr noundef nonnull align 8 dereferenceable(32) %4) #21
  %7 = call i32 (ptr, i64, ptr, ...) @snprintf(ptr noundef null, i64 noundef 0, ptr noundef nonnull @.str.12, ptr noundef nonnull @.str.13) #21
  %8 = add nsw i32 %7, 1
  %9 = sext i32 %8 to i64
  invoke void @_ZNSt7__cxx1112basic_stringIcSt11char_traitsIcESaIcEE6resizeEm(ptr noundef nonnull align 8 dereferenceable(32) %4, i64 noundef %9)
          to label %10 unwind label %17

10:                                               ; preds = %6
  %11 = invoke noundef nonnull align 1 dereferenceable(1) ptr @_ZNSt7__cxx1112basic_stringIcSt11char_traitsIcESaIcEEixEm(ptr noundef nonnull align 8 dereferenceable(32) %4, i64 noundef 0)
          to label %12 unwind label %17

12:                                               ; preds = %10
  %13 = call noundef i64 @_ZNKSt7__cxx1112basic_stringIcSt11char_traitsIcESaIcEE4sizeEv(ptr noundef nonnull align 8 dereferenceable(32) %4) #21
  %14 = call i32 (ptr, i64, ptr, ...) @snprintf(ptr noundef nonnull %11, i64 noundef %13, ptr noundef nonnull @.str.12, ptr noundef nonnull @.str.13) #21
  %15 = call ptr @__cxa_allocate_exception(i64 40) #21
  invoke void @_ZN5faiss14FaissExceptionC1ERKNSt7__cxx1112basic_stringIcSt11char_traitsIcESaIcEEEPKcSA_i(ptr noundef nonnull align 8 dereferenceable(40) %15, ptr noundef nonnull align 8 dereferenceable(32) %4, ptr noundef nonnull @__PRETTY_FUNCTION__._ZN5faiss14IndexFlatCodes10merge_fromERNS_5IndexEl, ptr noundef nonnull @.str.2, i32 noundef 91)
          to label %16 unwind label %19

16:                                               ; preds = %12
  invoke void @__cxa_throw(ptr nonnull %15, ptr nonnull @_ZTIN5faiss14FaissExceptionE, ptr nonnull @_ZN5faiss14FaissExceptionD2Ev) #23
          to label %50 unwind label %17

17:                                               ; preds = %16, %10, %6
  %18 = landingpad { ptr, i32 }
          cleanup
  br label %21

19:                                               ; preds = %12
  %20 = landingpad { ptr, i32 }
          cleanup
  call void @__cxa_free_exception(ptr %15) #21
  br label %21

21:                                               ; preds = %19, %17
  %.pn = phi { ptr, i32 } [ %18, %17 ], [ %20, %19 ]
  call void @_ZNSt7__cxx1112basic_stringIcSt11char_traitsIcESaIcEED1Ev(ptr noundef nonnull align 8 dereferenceable(32) %4) #21
  resume { ptr, i32 } %.pn

22:                                               ; preds = %3
  %23 = load ptr, ptr %0, align 8
  %24 = getelementptr inbounds i8, ptr %23, i64 168
  %25 = load ptr, ptr %24, align 8
  tail call void %25(ptr noundef nonnull align 8 dereferenceable(72) %0, ptr noundef nonnull align 8 dereferenceable(36) %1)
  %26 = getelementptr inbounds i8, ptr %0, i64 48
  %27 = getelementptr inbounds i8, ptr %0, i64 16
  %28 = load i64, ptr %27, align 8
  %29 = getelementptr inbounds i8, ptr %1, i64 16
  %30 = load i64, ptr %29, align 8
  %31 = add nsw i64 %30, %28
  %32 = getelementptr inbounds i8, ptr %0, i64 40
  %33 = load i64, ptr %32, align 8
  %34 = mul i64 %31, %33
  tail call void @_ZNSt6vectorIhSaIhEE6resizeEm(ptr noundef nonnull align 8 dereferenceable(24) %26, i64 noundef %34)
  %35 = load ptr, ptr %26, align 8
  %36 = load i64, ptr %27, align 8
  %37 = load i64, ptr %32, align 8
  %38 = mul i64 %37, %36
  %39 = getelementptr inbounds i8, ptr %35, i64 %38
  %40 = getelementptr inbounds i8, ptr %1, i64 48
  %41 = load ptr, ptr %40, align 8
  %42 = load i64, ptr %29, align 8
  %43 = mul i64 %42, %37
  tail call void @llvm.memcpy.p0.p0.i64(ptr align 1 %39, ptr align 1 %41, i64 %43, i1 false)
  %44 = load i64, ptr %29, align 8
  %45 = load i64, ptr %27, align 8
  %46 = add nsw i64 %45, %44
  store i64 %46, ptr %27, align 8
  %47 = load ptr, ptr %1, align 8
  %48 = getelementptr inbounds i8, ptr %47, i64 64
  %49 = load ptr, ptr %48, align 8
  tail call void %49(ptr noundef nonnull align 8 dereferenceable(72) %1)
  ret void

50:                                               ; preds = %16
  unreachable
}